target datalayout = "e-m:e-p270:32:32-p271:32:32-p272:64:64-i64:64-i128:128-f80:128-n8:16:32:64-S128"
target triple = "x86_64-pc-linux-gnu"

; Function Attrs: nounwind sspstrong uwtable
define internal ptr @nrv_alloc(ptr noundef %0, ptr noundef %1, i64 noundef %2) #2 {
  %4 = alloca ptr, align 8
  %5 = alloca ptr, align 8
  %6 = alloca i64, align 8
  %7 = alloca ptr, align 8
  %8 = alloca ptr, align 8
  store ptr %0, ptr %4, align 8, !tbaa !7
  store ptr %1, ptr %5, align 8, !tbaa !25
  store i64 %2, ptr %6, align 8, !tbaa !12
  call void @llvm.lifetime.start.p0(i64 8, ptr %7) #16
  call void @llvm.lifetime.start.p0(i64 8, ptr %8) #16
  %9 = load i64, ptr %6, align 8, !tbaa !12
  %10 = call noalias ptr @malloc(i64 noundef %9) #22
  store ptr %10, ptr %7, align 8, !tbaa !7
  store ptr %10, ptr %8, align 8, !tbaa !7
  br label %11

11:                                               ; preds = %18, %3
  %12 = load ptr, ptr %4, align 8, !tbaa !7
  %13 = getelementptr i8, ptr %12, i32 1
  store ptr %13, ptr %4, align 8, !tbaa !7
  %14 = load i8, ptr %12, align 1, !tbaa !16
  %15 = load ptr, ptr %8, align 8, !tbaa !7
  store i8 %14, ptr %15, align 1, !tbaa !16
  %16 = sext i8 %14 to i32
  %17 = icmp ne i32 %16, 0
  br i1 %17, label %18, label %21

18:                                               ; preds = %11
  %19 = load ptr, ptr %8, align 8, !tbaa !7
  %20 = getelementptr i8, ptr %19, i32 1
  store ptr %20, ptr %8, align 8, !tbaa !7
  br label %11, !llvm.loop !91

21:                                               ; preds = %11
  %22 = load ptr, ptr %5, align 8, !tbaa !25
  %23 = icmp ne ptr %22, null
  br i1 %23, label %24, label %27

24:                                               ; preds = %21
  %25 = load ptr, ptr %8, align 8, !tbaa !7
  %26 = load ptr, ptr %5, align 8, !tbaa !25
  store ptr %25, ptr %26, align 8, !tbaa !7
  br label %27

27:                                               ; preds = %24, %21
  %28 = load ptr, ptr %7, align 8, !tbaa !7
  call void @llvm.lifetime.end.p0(i64 8, ptr %8) #16
  call void @llvm.lifetime.end.p0(i64 8, ptr %7) #16
  ret ptr %28
}