; Function Attrs: nofree nounwind sspstrong memory(write, argmem: readwrite, inaccessiblemem: readwrite) uwtable
define internal fastcc noundef ptr @nrv_alloc(ptr noundef readonly captures(none) %0, ptr noundef writeonly captures(address_is_null) %1, i64 noundef range(i64 2, 10) %2) unnamed_addr #13 {
  %4 = tail call noalias ptr @malloc(i64 noundef %2) #21
  %5 = load i8, ptr %0, align 1, !tbaa !7
  store i8 %5, ptr %4, align 1, !tbaa !7
  %.not10 = icmp eq i8 %5, 0
  br i1 %.not10, label %._crit_edge, label %.lr.ph

.lr.ph:                                           ; preds = %3, %.lr.ph
  %.012 = phi ptr [ %7, %.lr.ph ], [ %4, %3 ]
  %.0711 = phi ptr [ %6, %.lr.ph ], [ %0, %3 ]
  %6 = getelementptr i8, ptr %.0711, i64 1
  %7 = getelementptr i8, ptr %.012, i64 1
  %8 = load i8, ptr %6, align 1, !tbaa !7
  store i8 %8, ptr %7, align 1, !tbaa !7
  %.not = icmp eq i8 %8, 0
  br i1 %.not, label %._crit_edge, label %.lr.ph, !llvm.loop !77

._crit_edge:                                      ; preds = %.lr.ph, %3
  %.0.lcssa = phi ptr [ %4, %3 ], [ %7, %.lr.ph ]
  %.not9 = icmp eq ptr %1, null
  br i1 %.not9, label %10, label %9

9:                                                ; preds = %._crit_edge
  store ptr %.0.lcssa, ptr %1, align 8, !tbaa !19
  br label %10

10:                                               ; preds = %9, %._crit_edge
  ret ptr %4
}